; Function Attrs: mustprogress nounwind uwtable
define hidden void @_ZN4cvc58internal18SharedTermsVisitor5startENS0_12NodeTemplateILb0EEE(ptr noundef nonnull align 8 captures(none) dereferenceable(208) %0, ptr noundef readonly captures(none) %1) local_unnamed_addr #6 align 2 personality ptr @__gxx_personality_v0 {
  %3 = getelementptr inbounds nuw i8, ptr %0, i64 40
  %4 = getelementptr inbounds nuw i8, ptr %0, i64 56
  %5 = load ptr, ptr %4, align 8, !tbaa !134
  %.not5.i.i.i = icmp eq ptr %5, null
  br i1 %.not5.i.i.i, label %_ZNSt13unordered_mapIN4cvc58internal12NodeTemplateILb0EEEjSt4hashIS3_ESt8equal_toIS3_ESaISt4pairIKS3_jEEE5clearEv.exit, label %.lr.ph.i.i.i

.lr.ph.i.i.i:                                     ; preds = %2, %.lr.ph.i.i.i
  %.06.i.i.i = phi ptr [ %6, %.lr.ph.i.i.i ], [ %5, %2 ]
  %6 = load ptr, ptr %.06.i.i.i, align 8, !tbaa !99
  tail call void @_ZdlPvm(ptr noundef nonnull %.06.i.i.i, i64 noundef 32) #24
  %.not.i.i.i = icmp eq ptr %6, null
  br i1 %.not.i.i.i, label %_ZNSt13unordered_mapIN4cvc58internal12NodeTemplateILb0EEEjSt4hashIS3_ESt8equal_toIS3_ESaISt4pairIKS3_jEEE5clearEv.exit, label %.lr.ph.i.i.i, !llvm.loop !135

_ZNSt13unordered_mapIN4cvc58internal12NodeTemplateILb0EEEjSt4hashIS3_ESt8equal_toIS3_ESaISt4pairIKS3_jEEE5clearEv.exit: ; preds = %.lr.ph.i.i.i, %2
  %7 = load ptr, ptr %3, align 8, !tbaa !132
  %8 = getelementptr inbounds nuw i8, ptr %0, i64 48
  %9 = load i64, ptr %8, align 8, !tbaa !133
  %10 = shl i64 %9, 3
  tail call void @llvm.memset.p0.i64(ptr align 8 %7, i8 0, i64 %10, i1 false)
  tail call void @llvm.memset.p0.i64(ptr noundef nonnull align 8 dereferenceable(16) %4, i8 0, i64 16, i1 false)
  %11 = getelementptr inbounds nuw i8, ptr %0, i64 16
  %12 = load ptr, ptr %11, align 8, !tbaa !25
  %13 = load ptr, ptr %1, align 8, !tbaa !25
  %.not.i = icmp eq ptr %12, %13
  br i1 %.not.i, label %_ZN4cvc58internal12NodeTemplateILb0EEaSERKS2_.exit, label %14, !prof !81

14:                                               ; preds = %_ZNSt13unordered_mapIN4cvc58internal12NodeTemplateILb0EEEjSt4hashIS3_ESt8equal_toIS3_ESaISt4pairIKS3_jEEE5clearEv.exit
  store ptr %13, ptr %11, align 8, !tbaa !25
  br label %_ZN4cvc58internal12NodeTemplateILb0EEaSERKS2_.exit

_ZN4cvc58internal12NodeTemplateILb0EEaSERKS2_.exit: ; preds = %_ZNSt13unordered_mapIN4cvc58internal12NodeTemplateILb0EEEjSt4hashIS3_ESt8equal_toIS3_ESaISt4pairIKS3_jEEE5clearEv.exit, %14
  ret void
}